target datalayout = "e-m:e-p270:32:32-p271:32:32-p272:64:64-i64:64-i128:128-f80:128-n8:16:32:64-S128"
target triple = "x86_64-pc-linux-gnu"

%struct.nameData = type { [64 x i8] }
%struct.RelationData = type { %struct.RelFileLocator, ptr, i32, i32, i8, i8, i8, i8, i8, i32, i32, i32, i32, ptr, ptr, i32, %struct.LockInfoData, ptr, ptr, ptr, ptr, ptr, i8, ptr, ptr, ptr, ptr, ptr, ptr, i32, ptr, i8, ptr, ptr, i32, i8, i32, ptr, i8, ptr, ptr, ptr, ptr, ptr, ptr, ptr, i32, ptr, ptr, ptr, ptr, ptr, ptr, ptr, ptr, ptr, ptr, ptr, ptr, ptr, ptr, ptr, ptr, ptr, ptr, ptr, i32, i8, ptr }
%struct.RelFileLocator = type { i32, i32, i32 }
%struct.LockInfoData = type { %struct.LockRelId }
%struct.LockRelId = type { i32, i32 }
%struct.FormData_pg_class = type { i32, %struct.nameData, i32, i32, i32, i32, i32, i32, i32, i32, float, i32, i32, i8, i8, i8, i8, i16, i16, i8, i8, i8, i8, i8, i8, i8, i8, i32, i32, i32 }
%struct.FormData_pg_index = type { i32, i32, i16, i16, i8, i8, i8, i8, i8, i8, i8, i8, i8, i8, i8, %struct.int2vector }
%struct.int2vector = type { i32, i32, i32, i32, i32, i32, [0 x i16] }
%struct.HeapTupleData = type { i32, %struct.ItemPointerData, i32, ptr }
%struct.ItemPointerData = type { %struct.BlockIdData, i16 }
%struct.BlockIdData = type { i16, i16 }
%struct.HeapTupleHeaderData = type { %union.anon, %struct.ItemPointerData, i16, i16, i8, [0 x i8] }
%union.anon = type { %struct.HeapTupleFields }
%struct.HeapTupleFields = type { i32, i32, %union.anon.0 }
%union.anon.0 = type { i32 }
%struct.ScanKeyData = type { i32, i16, i16, i32, i32, %struct.FmgrInfo, i64 }
%struct.FmgrInfo = type { ptr, i32, i16, i8, i8, i8, ptr, ptr, ptr }

@CacheMemoryContext = external global ptr, align 8
@CurrentMemoryContext = external global ptr, align 8

; Function Attrs: inlinehint nounwind uwtable
define internal ptr @MemoryContextSwitchTo(ptr noundef %0) #3 {
  %2 = alloca ptr, align 8
  %3 = alloca ptr, align 8
  store ptr %0, ptr %2, align 8
  call void @llvm.lifetime.start.p0(i64 8, ptr %3) #11
  %4 = load ptr, ptr @CurrentMemoryContext, align 8
  store ptr %4, ptr %3, align 8
  %5 = load ptr, ptr %2, align 8
  store ptr %5, ptr @CurrentMemoryContext, align 8
  %6 = load ptr, ptr %3, align 8
  call void @llvm.lifetime.end.p0(i64 8, ptr %3) #11
  ret ptr %6
}

; Function Attrs: inlinehint nounwind uwtable
define internal ptr @GETSTRUCT(ptr noundef %0) #3 {
  %2 = alloca ptr, align 8
  store ptr %0, ptr %2, align 8
  %3 = load ptr, ptr %2, align 8
  %4 = getelementptr inbounds nuw %struct.HeapTupleData, ptr %3, i32 0, i32 3
  %5 = load ptr, ptr %4, align 8
  %6 = load ptr, ptr %2, align 8
  %7 = getelementptr inbounds nuw %struct.HeapTupleData, ptr %6, i32 0, i32 3
  %8 = load ptr, ptr %7, align 8
  %9 = getelementptr inbounds nuw %struct.HeapTupleHeaderData, ptr %8, i32 0, i32 4
  %10 = load i8, ptr %9, align 2
  %11 = zext i8 %10 to i32
  %12 = sext i32 %11 to i64
  %13 = getelementptr inbounds i8, ptr %5, i64 %12
  ret ptr %13
}

; Function Attrs: inlinehint nounwind uwtable
define internal i64 @ObjectIdGetDatum(i32 noundef %0) #3 {
  %2 = alloca i32, align 4
  store i32 %0, ptr %2, align 4
  %3 = load i32, ptr %2, align 4
  %4 = zext i32 %3 to i64
  ret i64 %4
}

; Function Attrs: nounwind uwtable
define dso_local ptr @RelationGetIndexList(ptr noundef %0) #0 {
  %2 = alloca ptr, align 8
  %3 = alloca ptr, align 8
  %4 = alloca ptr, align 8
  %5 = alloca ptr, align 8
  %6 = alloca %struct.ScanKeyData, align 8
  %7 = alloca ptr, align 8
  %8 = alloca ptr, align 8
  %9 = alloca ptr, align 8
  %10 = alloca i8, align 1
  %11 = alloca i32, align 4
  %12 = alloca i32, align 4
  %13 = alloca i8, align 1
  %14 = alloca ptr, align 8
  %15 = alloca i32, align 4
  %16 = alloca ptr, align 8
  store ptr %0, ptr %3, align 8
  call void @llvm.lifetime.start.p0(i64 8, ptr %4) #11
  call void @llvm.lifetime.start.p0(i64 8, ptr %5) #11
  call void @llvm.lifetime.start.p0(i64 72, ptr %6) #11
  call void @llvm.lifetime.start.p0(i64 8, ptr %7) #11
  call void @llvm.lifetime.start.p0(i64 8, ptr %8) #11
  call void @llvm.lifetime.start.p0(i64 8, ptr %9) #11
  call void @llvm.lifetime.start.p0(i64 1, ptr %10) #11
  %17 = load ptr, ptr %3, align 8
  %18 = getelementptr inbounds nuw %struct.RelationData, ptr %17, i32 0, i32 13
  %19 = load ptr, ptr %18, align 8
  %20 = getelementptr inbounds nuw %struct.FormData_pg_class, ptr %19, i32 0, i32 25
  %21 = load i8, ptr %20, align 2
  store i8 %21, ptr %10, align 1
  call void @llvm.lifetime.start.p0(i64 4, ptr %11) #11
  store i32 0, ptr %11, align 4
  call void @llvm.lifetime.start.p0(i64 4, ptr %12) #11
  store i32 0, ptr %12, align 4
  call void @llvm.lifetime.start.p0(i64 1, ptr %13) #11
  store i8 0, ptr %13, align 1
  call void @llvm.lifetime.start.p0(i64 8, ptr %14) #11
  %22 = load ptr, ptr %3, align 8
  %23 = getelementptr inbounds nuw %struct.RelationData, ptr %22, i32 0, i32 7
  %24 = load i8, ptr %23, align 1, !range !4, !noundef !5
  %25 = trunc i8 %24 to i1
  br i1 %25, label %26, label %31

26:                                               ; preds = %1
  %27 = load ptr, ptr %3, align 8
  %28 = getelementptr inbounds nuw %struct.RelationData, ptr %27, i32 0, i32 33
  %29 = load ptr, ptr %28, align 8
  %30 = call ptr @list_copy(ptr noundef %29)
  store ptr %30, ptr %2, align 8
  store i32 1, ptr %15, align 4
  br label %174

31:                                               ; preds = %1
  store ptr null, ptr %8, align 8
  %32 = load ptr, ptr %3, align 8
  %33 = getelementptr inbounds nuw %struct.RelationData, ptr %32, i32 0, i32 15
  %34 = load i32, ptr %33, align 8
  %35 = call i64 @ObjectIdGetDatum(i32 noundef %34)
  call void @ScanKeyInit(ptr noundef %6, i16 noundef signext 2, i16 noundef zeroext 3, i32 noundef 184, i64 noundef %35)
  %36 = call ptr @table_open(i32 noundef 2610, i32 noundef 1)
  store ptr %36, ptr %4, align 8
  %37 = load ptr, ptr %4, align 8
  %38 = call ptr @systable_beginscan(ptr noundef %37, i32 noundef 2678, i1 noundef zeroext true, ptr noundef null, i32 noundef 1, ptr noundef %6)
  store ptr %38, ptr %5, align 8
  br label %39

39:                                               ; preds = %117, %115, %31
  %40 = load ptr, ptr %5, align 8
  %41 = call ptr @systable_getnext(ptr noundef %40)
  store ptr %41, ptr %7, align 8
  %42 = icmp ne ptr %41, null
  br i1 %42, label %43, label %118

43:                                               ; preds = %39
  call void @llvm.lifetime.start.p0(i64 8, ptr %16) #11
  %44 = load ptr, ptr %7, align 8
  %45 = call ptr @GETSTRUCT(ptr noundef %44)
  store ptr %45, ptr %16, align 8
  %46 = load ptr, ptr %16, align 8
  %47 = getelementptr inbounds nuw %struct.FormData_pg_index, ptr %46, i32 0, i32 13
  %48 = load i8, ptr %47, align 1, !range !4, !noundef !5
  %49 = trunc i8 %48 to i1
  br i1 %49, label %51, label %50

50:                                               ; preds = %43
  store i32 2, ptr %15, align 4
  br label %115, !llvm.loop !32

51:                                               ; preds = %43
  %52 = load ptr, ptr %8, align 8
  %53 = load ptr, ptr %16, align 8
  %54 = getelementptr inbounds nuw %struct.FormData_pg_index, ptr %53, i32 0, i32 0
  %55 = load i32, ptr %54, align 4
  %56 = call ptr @lappend_oid(ptr noundef %52, i32 noundef %55)
  store ptr %56, ptr %8, align 8
  %57 = load ptr, ptr %16, align 8
  %58 = getelementptr inbounds nuw %struct.FormData_pg_index, ptr %57, i32 0, i32 4
  %59 = load i8, ptr %58, align 4, !range !4, !noundef !5
  %60 = trunc i8 %59 to i1
  br i1 %60, label %61, label %64

61:                                               ; preds = %51
  %62 = load ptr, ptr %7, align 8
  %63 = call zeroext i1 @heap_attisnull(ptr noundef %62, i32 noundef 21, ptr noundef null)
  br i1 %63, label %65, label %64

64:                                               ; preds = %61, %51
  store i32 2, ptr %15, align 4
  br label %115, !llvm.loop !32

65:                                               ; preds = %61
  %66 = load ptr, ptr %16, align 8
  %67 = getelementptr inbounds nuw %struct.FormData_pg_index, ptr %66, i32 0, i32 6
  %68 = load i8, ptr %67, align 2, !range !4, !noundef !5
  %69 = trunc i8 %68 to i1
  br i1 %69, label %70, label %93

70:                                               ; preds = %65
  %71 = load ptr, ptr %16, align 8
  %72 = getelementptr inbounds nuw %struct.FormData_pg_index, ptr %71, i32 0, i32 10
  %73 = load i8, ptr %72, align 2, !range !4, !noundef !5
  %74 = trunc i8 %73 to i1
  br i1 %74, label %83, label %75

75:                                               ; preds = %70
  %76 = load ptr, ptr %3, align 8
  %77 = getelementptr inbounds nuw %struct.RelationData, ptr %76, i32 0, i32 13
  %78 = load ptr, ptr %77, align 8
  %79 = getelementptr inbounds nuw %struct.FormData_pg_class, ptr %78, i32 0, i32 16
  %80 = load i8, ptr %79, align 1
  %81 = sext i8 %80 to i32
  %82 = icmp eq i32 %81, 112
  br i1 %82, label %83, label %93

83:                                               ; preds = %75, %70
  %84 = load ptr, ptr %16, align 8
  %85 = getelementptr inbounds nuw %struct.FormData_pg_index, ptr %84, i32 0, i32 0
  %86 = load i32, ptr %85, align 4
  store i32 %86, ptr %11, align 4
  %87 = load ptr, ptr %16, align 8
  %88 = getelementptr inbounds nuw %struct.FormData_pg_index, ptr %87, i32 0, i32 8
  %89 = load i8, ptr %88, align 4, !range !4, !noundef !5
  %90 = trunc i8 %89 to i1
  %91 = xor i1 %90, true
  %92 = zext i1 %91 to i8
  store i8 %92, ptr %13, align 1
  br label %93

93:                                               ; preds = %83, %75, %65
  %94 = load ptr, ptr %16, align 8
  %95 = getelementptr inbounds nuw %struct.FormData_pg_index, ptr %94, i32 0, i32 8
  %96 = load i8, ptr %95, align 4, !range !4, !noundef !5
  %97 = trunc i8 %96 to i1
  br i1 %97, label %99, label %98

98:                                               ; preds = %93
  store i32 2, ptr %15, align 4
  br label %115, !llvm.loop !32

99:                                               ; preds = %93
  %100 = load ptr, ptr %16, align 8
  %101 = getelementptr inbounds nuw %struct.FormData_pg_index, ptr %100, i32 0, i32 10
  %102 = load i8, ptr %101, align 2, !range !4, !noundef !5
  %103 = trunc i8 %102 to i1
  br i1 %103, label %105, label %104

104:                                              ; preds = %99
  store i32 2, ptr %15, align 4
  br label %115, !llvm.loop !32

105:                                              ; preds = %99
  %106 = load ptr, ptr %16, align 8
  %107 = getelementptr inbounds nuw %struct.FormData_pg_index, ptr %106, i32 0, i32 14
  %108 = load i8, ptr %107, align 2, !range !4, !noundef !5
  %109 = trunc i8 %108 to i1
  br i1 %109, label %110, label %114

110:                                              ; preds = %105
  %111 = load ptr, ptr %16, align 8
  %112 = getelementptr inbounds nuw %struct.FormData_pg_index, ptr %111, i32 0, i32 0
  %113 = load i32, ptr %112, align 4
  store i32 %113, ptr %12, align 4
  br label %114

114:                                              ; preds = %110, %105
  store i32 0, ptr %15, align 4
  br label %115

115:                                              ; preds = %114, %104, %98, %64, %50
  call void @llvm.lifetime.end.p0(i64 8, ptr %16) #11
  %116 = load i32, ptr %15, align 4
  switch i32 %116, label %176 [
    i32 0, label %117
    i32 2, label %39
  ]

117:                                              ; preds = %115
  br label %39, !llvm.loop !32

118:                                              ; preds = %39
  %119 = load ptr, ptr %5, align 8
  call void @systable_endscan(ptr noundef %119)
  %120 = load ptr, ptr %4, align 8
  call void @table_close(ptr noundef %120, i32 noundef 1)
  %121 = load ptr, ptr %8, align 8
  call void @list_sort(ptr noundef %121, ptr noundef @list_oid_cmp)
  %122 = load ptr, ptr @CacheMemoryContext, align 8
  %123 = call ptr @MemoryContextSwitchTo(ptr noundef %122)
  store ptr %123, ptr %14, align 8
  %124 = load ptr, ptr %3, align 8
  %125 = getelementptr inbounds nuw %struct.RelationData, ptr %124, i32 0, i32 33
  %126 = load ptr, ptr %125, align 8
  store ptr %126, ptr %9, align 8
  %127 = load ptr, ptr %8, align 8
  %128 = call ptr @list_copy(ptr noundef %127)
  %129 = load ptr, ptr %3, align 8
  %130 = getelementptr inbounds nuw %struct.RelationData, ptr %129, i32 0, i32 33
  store ptr %128, ptr %130, align 8
  %131 = load i32, ptr %11, align 4
  %132 = load ptr, ptr %3, align 8
  %133 = getelementptr inbounds nuw %struct.RelationData, ptr %132, i32 0, i32 34
  store i32 %131, ptr %133, align 8
  %134 = load i8, ptr %13, align 1, !range !4, !noundef !5
  %135 = trunc i8 %134 to i1
  %136 = load ptr, ptr %3, align 8
  %137 = getelementptr inbounds nuw %struct.RelationData, ptr %136, i32 0, i32 35
  %138 = zext i1 %135 to i8
  store i8 %138, ptr %137, align 4
  %139 = load i8, ptr %10, align 1
  %140 = sext i8 %139 to i32
  %141 = icmp eq i32 %140, 100
  br i1 %141, label %142, label %152

142:                                              ; preds = %118
  %143 = load i32, ptr %11, align 4
  %144 = icmp ne i32 %143, 0
  br i1 %144, label %145, label %152

145:                                              ; preds = %142
  %146 = load i8, ptr %13, align 1, !range !4, !noundef !5
  %147 = trunc i8 %146 to i1
  br i1 %147, label %152, label %148

148:                                              ; preds = %145
  %149 = load i32, ptr %11, align 4
  %150 = load ptr, ptr %3, align 8
  %151 = getelementptr inbounds nuw %struct.RelationData, ptr %150, i32 0, i32 36
  store i32 %149, ptr %151, align 8
  br label %167

152:                                              ; preds = %145, %142, %118
  %153 = load i8, ptr %10, align 1
  %154 = sext i8 %153 to i32
  %155 = icmp eq i32 %154, 105
  br i1 %155, label %156, label %163

156:                                              ; preds = %152
  %157 = load i32, ptr %12, align 4
  %158 = icmp ne i32 %157, 0
  br i1 %158, label %159, label %163

159:                                              ; preds = %156
  %160 = load i32, ptr %12, align 4
  %161 = load ptr, ptr %3, align 8
  %162 = getelementptr inbounds nuw %struct.RelationData, ptr %161, i32 0, i32 36
  store i32 %160, ptr %162, align 8
  br label %166

163:                                              ; preds = %156, %152
  %164 = load ptr, ptr %3, align 8
  %165 = getelementptr inbounds nuw %struct.RelationData, ptr %164, i32 0, i32 36
  store i32 0, ptr %165, align 8
  br label %166

166:                                              ; preds = %163, %159
  br label %167

167:                                              ; preds = %166, %148
  %168 = load ptr, ptr %3, align 8
  %169 = getelementptr inbounds nuw %struct.RelationData, ptr %168, i32 0, i32 7
  store i8 1, ptr %169, align 1
  %170 = load ptr, ptr %14, align 8
  %171 = call ptr @MemoryContextSwitchTo(ptr noundef %170)
  %172 = load ptr, ptr %9, align 8
  call void @list_free(ptr noundef %172)
  %173 = load ptr, ptr %8, align 8
  store ptr %173, ptr %2, align 8
  store i32 1, ptr %15, align 4
  br label %174

174:                                              ; preds = %167, %26
  call void @llvm.lifetime.end.p0(i64 8, ptr %14) #11
  call void @llvm.lifetime.end.p0(i64 1, ptr %13) #11
  call void @llvm.lifetime.end.p0(i64 4, ptr %12) #11
  call void @llvm.lifetime.end.p0(i64 4, ptr %11) #11
  call void @llvm.lifetime.end.p0(i64 1, ptr %10) #11
  call void @llvm.lifetime.end.p0(i64 8, ptr %9) #11
  call void @llvm.lifetime.end.p0(i64 8, ptr %8) #11
  call void @llvm.lifetime.end.p0(i64 8, ptr %7) #11
  call void @llvm.lifetime.end.p0(i64 72, ptr %6) #11
  call void @llvm.lifetime.end.p0(i64 8, ptr %5) #11
  call void @llvm.lifetime.end.p0(i64 8, ptr %4) #11
  %175 = load ptr, ptr %2, align 8
  ret ptr %175

176:                                              ; preds = %115
  unreachable
}