; Function Attrs: nounwind uwtable
define dso_local ptr @RelationGetIndexList(ptr noundef captures(none) %0) local_unnamed_addr #0 {
  %2 = alloca %struct.ScanKeyData, align 8
  call void @llvm.lifetime.start.p0(i64 72, ptr nonnull %2) #13
  %3 = getelementptr inbounds nuw i8, ptr %0, i64 56
  %4 = load ptr, ptr %3, align 8
  %5 = getelementptr inbounds nuw i8, ptr %4, i64 126
  %6 = load i8, ptr %5, align 2
  %7 = getelementptr inbounds nuw i8, ptr %0, i64 35
  %8 = load i8, ptr %7, align 1, !range !6, !noundef !7
  %9 = trunc nuw i8 %8 to i1
  br i1 %9, label %10, label %14

10:                                               ; preds = %1
  %11 = getelementptr inbounds nuw i8, ptr %0, i64 216
  %12 = load ptr, ptr %11, align 8
  %13 = tail call ptr @list_copy(ptr noundef %12) #13
  br label %89

14:                                               ; preds = %1
  %15 = getelementptr inbounds nuw i8, ptr %0, i64 72
  %16 = load i32, ptr %15, align 8
  %17 = zext i32 %16 to i64
  call void @ScanKeyInit(ptr noundef nonnull %2, i16 noundef signext 2, i16 noundef zeroext 3, i32 noundef 184, i64 noundef %17) #13
  %18 = call ptr @table_open(i32 noundef 2610, i32 noundef 1) #13
  %19 = call ptr @systable_beginscan(ptr noundef %18, i32 noundef 2678, i1 noundef zeroext true, ptr noundef null, i32 noundef 1, ptr noundef nonnull %2) #13
  %20 = call ptr @systable_getnext(ptr noundef %19) #13
  %.not59 = icmp eq ptr %20, null
  br i1 %.not59, label %._crit_edge, label %.lr.ph

.lr.ph:                                           ; preds = %14, %70
  %21 = phi ptr [ %71, %70 ], [ %20, %14 ]
  %.04863 = phi ptr [ %.1, %70 ], [ null, %14 ]
  %.04962 = phi i8 [ %.150, %70 ], [ 0, %14 ]
  %.05161 = phi i32 [ %.152, %70 ], [ 0, %14 ]
  %.05460 = phi i32 [ %.155, %70 ], [ 0, %14 ]
  %22 = getelementptr i8, ptr %21, i64 16
  %.val = load ptr, ptr %22, align 8
  %23 = getelementptr inbounds nuw i8, ptr %.val, i64 22
  %24 = load i8, ptr %23, align 2
  %25 = zext i8 %24 to i64
  %26 = getelementptr inbounds nuw i8, ptr %.val, i64 %25
  %27 = getelementptr inbounds nuw i8, ptr %26, i64 21
  %28 = load i8, ptr %27, align 1, !range !6, !noundef !7
  %29 = trunc nuw i8 %28 to i1
  br i1 %29, label %30, label %70, !llvm.loop !38

30:                                               ; preds = %.lr.ph
  %31 = load i32, ptr %26, align 4
  %32 = call ptr @lappend_oid(ptr noundef %.04863, i32 noundef %31) #13
  %33 = getelementptr inbounds nuw i8, ptr %26, i64 12
  %34 = load i8, ptr %33, align 4, !range !6, !noundef !7
  %35 = trunc nuw i8 %34 to i1
  br i1 %35, label %36, label %70, !llvm.loop !38

36:                                               ; preds = %30
  %37 = call zeroext i1 @heap_attisnull(ptr noundef nonnull %21, i32 noundef 21, ptr noundef null) #13
  br i1 %37, label %38, label %70, !llvm.loop !38

38:                                               ; preds = %36
  %39 = getelementptr inbounds nuw i8, ptr %26, i64 14
  %40 = load i8, ptr %39, align 2, !range !6, !noundef !7
  %41 = trunc nuw i8 %40 to i1
  br i1 %41, label %42, label %56

42:                                               ; preds = %38
  %43 = getelementptr inbounds nuw i8, ptr %26, i64 18
  %44 = load i8, ptr %43, align 2, !range !6, !noundef !7
  %45 = trunc nuw i8 %44 to i1
  br i1 %45, label %51, label %46

46:                                               ; preds = %42
  %47 = load ptr, ptr %3, align 8
  %48 = getelementptr inbounds nuw i8, ptr %47, i64 115
  %49 = load i8, ptr %48, align 1
  %50 = icmp eq i8 %49, 112
  br i1 %50, label %51, label %56

51:                                               ; preds = %46, %42
  %52 = load i32, ptr %26, align 4
  %53 = getelementptr inbounds nuw i8, ptr %26, i64 16
  %54 = load i8, ptr %53, align 4, !range !6, !noundef !7
  %55 = xor i8 %54, 1
  br label %56

56:                                               ; preds = %51, %46, %38
  %.256 = phi i32 [ %52, %51 ], [ %.05460, %46 ], [ %.05460, %38 ]
  %.2 = phi i8 [ %55, %51 ], [ %.04962, %46 ], [ %.04962, %38 ]
  %57 = getelementptr inbounds nuw i8, ptr %26, i64 16
  %58 = load i8, ptr %57, align 4, !range !6, !noundef !7
  %59 = trunc nuw i8 %58 to i1
  br i1 %59, label %60, label %70, !llvm.loop !38

60:                                               ; preds = %56
  %61 = getelementptr inbounds nuw i8, ptr %26, i64 18
  %62 = load i8, ptr %61, align 2, !range !6, !noundef !7
  %63 = trunc nuw i8 %62 to i1
  br i1 %63, label %64, label %70, !llvm.loop !38

64:                                               ; preds = %60
  %65 = getelementptr inbounds nuw i8, ptr %26, i64 22
  %66 = load i8, ptr %65, align 2, !range !6, !noundef !7
  %67 = trunc nuw i8 %66 to i1
  br i1 %67, label %68, label %70

68:                                               ; preds = %64
  %69 = load i32, ptr %26, align 4
  br label %70

70:                                               ; preds = %64, %68, %60, %56, %30, %36, %.lr.ph
  %.155 = phi i32 [ %.05460, %.lr.ph ], [ %.05460, %36 ], [ %.05460, %30 ], [ %.256, %56 ], [ %.256, %60 ], [ %.256, %68 ], [ %.256, %64 ]
  %.152 = phi i32 [ %.05161, %.lr.ph ], [ %.05161, %36 ], [ %.05161, %30 ], [ %.05161, %56 ], [ %.05161, %60 ], [ %69, %68 ], [ %.05161, %64 ]
  %.150 = phi i8 [ %.04962, %.lr.ph ], [ %.04962, %36 ], [ %.04962, %30 ], [ %.2, %56 ], [ %.2, %60 ], [ %.2, %68 ], [ %.2, %64 ]
  %.1 = phi ptr [ %.04863, %.lr.ph ], [ %32, %36 ], [ %32, %30 ], [ %32, %56 ], [ %32, %60 ], [ %32, %68 ], [ %32, %64 ]
  %71 = call ptr @systable_getnext(ptr noundef %19) #13
  %.not = icmp eq ptr %71, null
  br i1 %.not, label %._crit_edge, label %.lr.ph

._crit_edge:                                      ; preds = %70, %14
  %.054.lcssa = phi i32 [ 0, %14 ], [ %.155, %70 ]
  %.051.lcssa = phi i32 [ 0, %14 ], [ %.152, %70 ]
  %.049.lcssa = phi i8 [ 0, %14 ], [ %.150, %70 ]
  %.048.lcssa = phi ptr [ null, %14 ], [ %.1, %70 ]
  call void @systable_endscan(ptr noundef %19) #13
  call void @table_close(ptr noundef %18, i32 noundef 1) #13
  call void @list_sort(ptr noundef %.048.lcssa, ptr noundef nonnull @list_oid_cmp) #13
  %72 = load ptr, ptr @CacheMemoryContext, align 8
  %73 = load ptr, ptr @CurrentMemoryContext, align 8
  store ptr %72, ptr @CurrentMemoryContext, align 8
  %74 = getelementptr inbounds nuw i8, ptr %0, i64 216
  %75 = load ptr, ptr %74, align 8
  %76 = call ptr @list_copy(ptr noundef %.048.lcssa) #13
  store ptr %76, ptr %74, align 8
  %77 = getelementptr inbounds nuw i8, ptr %0, i64 224
  store i32 %.054.lcssa, ptr %77, align 8
  %78 = getelementptr inbounds nuw i8, ptr %0, i64 228
  %79 = and i8 %.049.lcssa, 1
  store i8 %79, ptr %78, align 4
  %80 = icmp eq i8 %6, 100
  %81 = icmp ne i32 %.054.lcssa, 0
  %or.cond = select i1 %80, i1 %81, i1 false
  br i1 %or.cond, label %82, label %84

82:                                               ; preds = %._crit_edge
  %83 = trunc nuw i8 %.049.lcssa to i1
  br i1 %83, label %.thread, label %87

84:                                               ; preds = %._crit_edge
  %85 = icmp eq i8 %6, 105
  %86 = icmp ne i32 %.051.lcssa, 0
  %or.cond3 = select i1 %85, i1 %86, i1 false
  br i1 %or.cond3, label %87, label %.thread

.thread:                                          ; preds = %82, %84
  br label %87

87:                                               ; preds = %84, %82, %.thread
  %.051.lcssa.sink = phi i32 [ 0, %.thread ], [ %.054.lcssa, %82 ], [ %.051.lcssa, %84 ]
  %88 = getelementptr inbounds nuw i8, ptr %0, i64 232
  store i32 %.051.lcssa.sink, ptr %88, align 8
  store i8 1, ptr %7, align 1
  store ptr %73, ptr @CurrentMemoryContext, align 8
  call void @list_free(ptr noundef %75) #13
  br label %89

89:                                               ; preds = %87, %10
  %.0 = phi ptr [ %13, %10 ], [ %.048.lcssa, %87 ]
  call void @llvm.lifetime.end.p0(i64 72, ptr nonnull %2) #13
  ret ptr %.0
}